; ModuleID = '46/1818.c'
source_filename = "46/1818.c"
target datalayout = "e-m:e-p270:32:32-p271:32:32-p272:64:64-i64:64-f80:128-n8:16:32:64-S128"
target triple = "x86_64-pc-linux-gnu"

@.str = private unnamed_addr constant [6 x i8] c"%d %d\00", align 1
@.str.1 = private unnamed_addr constant [3 x i8] c"%d\00", align 1
@.str.2 = private unnamed_addr constant [4 x i8] c"%d\0A\00", align 1

; Function Attrs: noinline nounwind uwtable
define dso_local i32 @main() #0 {
  %1 = alloca i32, align 4
  %2 = alloca i32, align 4
  %3 = alloca i32, align 4
  %4 = alloca i32, align 4
  %5 = alloca [100 x [100 x i32]], align 16
  %6 = alloca i32, align 4
  %7 = alloca i32, align 4
  %8 = alloca i32, align 4
  %9 = alloca i32, align 4
  %10 = alloca i32, align 4
  %11 = alloca i32, align 4
  %12 = alloca i32, align 4
  store i32 0, i32* %1, align 4
  store i32 1, i32* %4, align 4
  %13 = call i32 (i8*, ...) @__isoc99_scanf(i8* getelementptr inbounds ([6 x i8], [6 x i8]* @.str, i64 0, i64 0), i32* %2, i32* %3)
  store i32 0, i32* %6, align 4
  br label %14

14:                                               ; preds = %35, %0
  %15 = load i32, i32* %6, align 4
  %16 = load i32, i32* %2, align 4
  %17 = icmp slt i32 %15, %16
  br i1 %17, label %18, label %38

18:                                               ; preds = %14
  store i32 0, i32* %7, align 4
  br label %19

19:                                               ; preds = %31, %18
  %20 = load i32, i32* %7, align 4
  %21 = load i32, i32* %3, align 4
  %22 = icmp slt i32 %20, %21
  br i1 %22, label %23, label %34

23:                                               ; preds = %19
  %24 = load i32, i32* %6, align 4
  %25 = sext i32 %24 to i64
  %26 = getelementptr inbounds [100 x [100 x i32]], [100 x [100 x i32]]* %5, i64 0, i64 %25
  %27 = load i32, i32* %7, align 4
  %28 = sext i32 %27 to i64
  %29 = getelementptr inbounds [100 x i32], [100 x i32]* %26, i64 0, i64 %28
  %30 = call i32 (i8*, ...) @__isoc99_scanf(i8* getelementptr inbounds ([3 x i8], [3 x i8]* @.str.1, i64 0, i64 0), i32* %29)
  br label %31

31:                                               ; preds = %23
  %32 = load i32, i32* %7, align 4
  %33 = add nsw i32 %32, 1
  store i32 %33, i32* %7, align 4
  br label %19

34:                                               ; preds = %19
  br label %35

35:                                               ; preds = %34
  %36 = load i32, i32* %6, align 4
  %37 = add nsw i32 %36, 1
  store i32 %37, i32* %6, align 4
  br label %14

38:                                               ; preds = %14
  store i32 0, i32* %8, align 4
  br label %39

39:                                               ; preds = %179, %38
  br i1 true, label %40, label %182

40:                                               ; preds = %39
  %41 = load i32, i32* %4, align 4
  %42 = load i32, i32* %2, align 4
  %43 = load i32, i32* %3, align 4
  %44 = mul nsw i32 %42, %43
  %45 = add nsw i32 %44, 1
  %46 = icmp eq i32 %41, %45
  br i1 %46, label %47, label %48

47:                                               ; preds = %40
  br label %182

48:                                               ; preds = %40
  %49 = load i32, i32* %8, align 4
  store i32 %49, i32* %9, align 4
  br label %50

50:                                               ; preds = %75, %48
  %51 = load i32, i32* %9, align 4
  %52 = load i32, i32* %3, align 4
  %53 = load i32, i32* %8, align 4
  %54 = sub nsw i32 %52, %53
  %55 = icmp slt i32 %51, %54
  br i1 %55, label %56, label %78

56:                                               ; preds = %50
  %57 = load i32, i32* %4, align 4
  %58 = load i32, i32* %2, align 4
  %59 = load i32, i32* %3, align 4
  %60 = mul nsw i32 %58, %59
  %61 = add nsw i32 %60, 1
  %62 = icmp eq i32 %57, %61
  br i1 %62, label %63, label %64

63:                                               ; preds = %56
  br label %78

64:                                               ; preds = %56
  %65 = load i32, i32* %8, align 4
  %66 = sext i32 %65 to i64
  %67 = getelementptr inbounds [100 x [100 x i32]], [100 x [100 x i32]]* %5, i64 0, i64 %66
  %68 = load i32, i32* %9, align 4
  %69 = sext i32 %68 to i64
  %70 = getelementptr inbounds [100 x i32], [100 x i32]* %67, i64 0, i64 %69
  %71 = load i32, i32* %70, align 4
  %72 = call i32 (i8*, ...) @printf(i8* getelementptr inbounds ([4 x i8], [4 x i8]* @.str.2, i64 0, i64 0), i32 %71)
  %73 = load i32, i32* %4, align 4
  %74 = add nsw i32 %73, 1
  store i32 %74, i32* %4, align 4
  br label %75

75:                                               ; preds = %64
  %76 = load i32, i32* %9, align 4
  %77 = add nsw i32 %76, 1
  store i32 %77, i32* %9, align 4
  br label %50

78:                                               ; preds = %63, %50
  %79 = load i32, i32* %8, align 4
  %80 = add nsw i32 %79, 1
  store i32 %80, i32* %10, align 4
  br label %81

81:                                               ; preds = %109, %78
  %82 = load i32, i32* %10, align 4
  %83 = load i32, i32* %2, align 4
  %84 = load i32, i32* %8, align 4
  %85 = sub nsw i32 %83, %84
  %86 = icmp slt i32 %82, %85
  br i1 %86, label %87, label %112

87:                                               ; preds = %81
  %88 = load i32, i32* %4, align 4
  %89 = load i32, i32* %2, align 4
  %90 = load i32, i32* %3, align 4
  %91 = mul nsw i32 %89, %90
  %92 = add nsw i32 %91, 1
  %93 = icmp eq i32 %88, %92
  br i1 %93, label %94, label %95

94:                                               ; preds = %87
  br label %112

95:                                               ; preds = %87
  %96 = load i32, i32* %10, align 4
  %97 = sext i32 %96 to i64
  %98 = getelementptr inbounds [100 x [100 x i32]], [100 x [100 x i32]]* %5, i64 0, i64 %97
  %99 = load i32, i32* %3, align 4
  %100 = load i32, i32* %8, align 4
  %101 = add nsw i32 %100, 1
  %102 = sub nsw i32 %99, %101
  %103 = sext i32 %102 to i64
  %104 = getelementptr inbounds [100 x i32], [100 x i32]* %98, i64 0, i64 %103
  %105 = load i32, i32* %104, align 4
  %106 = call i32 (i8*, ...) @printf(i8* getelementptr inbounds ([4 x i8], [4 x i8]* @.str.2, i64 0, i64 0), i32 %105)
  %107 = load i32, i32* %4, align 4
  %108 = add nsw i32 %107, 1
  store i32 %108, i32* %4, align 4
  br label %109

109:                                              ; preds = %95
  %110 = load i32, i32* %10, align 4
  %111 = add nsw i32 %110, 1
  store i32 %111, i32* %10, align 4
  br label %81

112:                                              ; preds = %94, %81
  %113 = load i32, i32* %3, align 4
  %114 = load i32, i32* %8, align 4
  %115 = add nsw i32 %114, 2
  %116 = sub nsw i32 %113, %115
  store i32 %116, i32* %11, align 4
  br label %117

117:                                              ; preds = %143, %112
  %118 = load i32, i32* %11, align 4
  %119 = load i32, i32* %8, align 4
  %120 = icmp sge i32 %118, %119
  br i1 %120, label %121, label %146

121:                                              ; preds = %117
  %122 = load i32, i32* %4, align 4
  %123 = load i32, i32* %2, align 4
  %124 = load i32, i32* %3, align 4
  %125 = mul nsw i32 %123, %124
  %126 = add nsw i32 %125, 1
  %127 = icmp eq i32 %122, %126
  br i1 %127, label %128, label %129

128:                                              ; preds = %121
  br label %146

129:                                              ; preds = %121
  %130 = load i32, i32* %2, align 4
  %131 = load i32, i32* %8, align 4
  %132 = add nsw i32 %131, 1
  %133 = sub nsw i32 %130, %132
  %134 = sext i32 %133 to i64
  %135 = getelementptr inbounds [100 x [100 x i32]], [100 x [100 x i32]]* %5, i64 0, i64 %134
  %136 = load i32, i32* %11, align 4
  %137 = sext i32 %136 to i64
  %138 = getelementptr inbounds [100 x i32], [100 x i32]* %135, i64 0, i64 %137
  %139 = load i32, i32* %138, align 4
  %140 = call i32 (i8*, ...) @printf(i8* getelementptr inbounds ([4 x i8], [4 x i8]* @.str.2, i64 0, i64 0), i32 %139)
  %141 = load i32, i32* %4, align 4
  %142 = add nsw i32 %141, 1
  store i32 %142, i32* %4, align 4
  br label %143

143:                                              ; preds = %129
  %144 = load i32, i32* %11, align 4
  %145 = add nsw i32 %144, -1
  store i32 %145, i32* %11, align 4
  br label %117

146:                                              ; preds = %128, %117
  %147 = load i32, i32* %2, align 4
  %148 = load i32, i32* %8, align 4
  %149 = add nsw i32 %148, 2
  %150 = sub nsw i32 %147, %149
  store i32 %150, i32* %12, align 4
  br label %151

151:                                              ; preds = %175, %146
  %152 = load i32, i32* %12, align 4
  %153 = load i32, i32* %8, align 4
  %154 = add nsw i32 %153, 1
  %155 = icmp sge i32 %152, %154
  br i1 %155, label %156, label %178

156:                                              ; preds = %151
  %157 = load i32, i32* %4, align 4
  %158 = load i32, i32* %2, align 4
  %159 = load i32, i32* %3, align 4
  %160 = mul nsw i32 %158, %159
  %161 = add nsw i32 %160, 1
  %162 = icmp eq i32 %157, %161
  br i1 %162, label %163, label %164

163:                                              ; preds = %156
  br label %178

164:                                              ; preds = %156
  %165 = load i32, i32* %12, align 4
  %166 = sext i32 %165 to i64
  %167 = getelementptr inbounds [100 x [100 x i32]], [100 x [100 x i32]]* %5, i64 0, i64 %166
  %168 = load i32, i32* %8, align 4
  %169 = sext i32 %168 to i64
  %170 = getelementptr inbounds [100 x i32], [100 x i32]* %167, i64 0, i64 %169
  %171 = load i32, i32* %170, align 4
  %172 = call i32 (i8*, ...) @printf(i8* getelementptr inbounds ([4 x i8], [4 x i8]* @.str.2, i64 0, i64 0), i32 %171)
  %173 = load i32, i32* %4, align 4
  %174 = add nsw i32 %173, 1
  store i32 %174, i32* %4, align 4
  br label %175

175:                                              ; preds = %164
  %176 = load i32, i32* %12, align 4
  %177 = add nsw i32 %176, -1
  store i32 %177, i32* %12, align 4
  br label %151

178:                                              ; preds = %163, %151
  br label %179

179:                                              ; preds = %178
  %180 = load i32, i32* %8, align 4
  %181 = add nsw i32 %180, 1
  store i32 %181, i32* %8, align 4
  br label %39

182:                                              ; preds = %47, %39
  ret i32 0
}

declare dso_local i32 @__isoc99_scanf(i8*, ...) #1

declare dso_local i32 @printf(i8*, ...) #1


!llvm.module.flags = !{!0}
!llvm.ident = !{!1}

!0 = !{i32 1, !"wchar_size", i32 4}
!1 = !{!"clang version 10.0.0-4ubuntu1 "}
